target datalayout = "e-m:e-p270:32:32-p271:32:32-p272:64:64-i64:64-i128:128-f80:128-n8:16:32:64-S128"
target triple = "x86_64-pc-linux-gnu"

%struct.pointf_s = type { double, double }
%struct.GVJ_s = type { ptr, ptr, ptr, ptr, ptr, ptr, i32, ptr, ptr, ptr, ptr, i64, i64, ptr, i32, %struct.gvplugin_active_render_s, %struct.gvplugin_active_device_s, %struct.gvplugin_active_loadimage_t, ptr, %struct.pointf_s, i8, ptr, i32, ptr, i8, ptr, i32, i32, i32, %struct.point, %struct.point, %struct.point, %struct.point, %struct.point, i32, %struct.boxf, %struct.pointf_s, %struct.boxf, %struct.boxf, %struct.pointf_s, %struct.pointf_s, double, i32, %struct.pointf_s, %struct.boxf, %struct.pointf_s, %struct.pointf_s, i32, i32, %struct.box, %struct.box, %struct.pointf_s, %struct.pointf_s, %struct.pointf_s, i8, i8, i8, i8, i8, i8, %struct.pointf_s, %struct.pointf_s, ptr, ptr, ptr, ptr, ptr, ptr, i64, ptr }
%struct.gvplugin_active_render_s = type { ptr, i32, ptr, ptr }
%struct.gvplugin_active_device_s = type { ptr, i32, ptr, ptr }
%struct.gvplugin_active_loadimage_t = type { ptr, i32, ptr }
%struct.point = type { i32, i32 }
%struct.boxf = type { %struct.pointf_s, %struct.pointf_s }
%struct.box = type { %struct.point, %struct.point }
%struct.obj_state_s = type { ptr, i32, %union.anon.0, i32, %struct.color_s, %struct.color_s, %struct.color_s, i32, double, i32, i32, double, ptr, double, double, double, ptr, ptr, ptr, ptr, ptr, ptr, ptr, ptr, ptr, ptr, ptr, ptr, ptr, ptr, ptr, ptr, ptr, i16, i32, i64, ptr, i64, ptr, ptr, i32, ptr, i32, ptr }
%union.anon.0 = type { ptr }
%struct.color_s = type { %union.anon.1, i32 }
%union.anon.1 = type { [4 x double] }
%struct.htmlmap_data_t = type { ptr, ptr, ptr, ptr, i8, %struct.point, %struct.point }

; Function Attrs: nounwind uwtable
define internal void @endAnchor(ptr noundef %0, ptr noundef %1) #0 {
  %3 = alloca ptr, align 8
  %4 = alloca ptr, align 8
  %5 = alloca ptr, align 8
  store ptr %0, ptr %3, align 8, !tbaa !3
  store ptr %1, ptr %4, align 8, !tbaa !103
  call void @llvm.lifetime.start.p0(i64 8, ptr %5) #14
  %6 = load ptr, ptr %3, align 8, !tbaa !3
  %7 = getelementptr inbounds nuw %struct.GVJ_s, ptr %6, i32 0, i32 4
  %8 = load ptr, ptr %7, align 8, !tbaa !34
  store ptr %8, ptr %5, align 8, !tbaa !87
  %9 = load ptr, ptr %5, align 8, !tbaa !87
  %10 = getelementptr inbounds nuw %struct.obj_state_s, ptr %9, i32 0, i32 20
  %11 = load ptr, ptr %10, align 8, !tbaa !92
  %12 = icmp ne ptr %11, null
  br i1 %12, label %20, label %13

13:                                               ; preds = %2
  %14 = load ptr, ptr %5, align 8, !tbaa !87
  %15 = getelementptr inbounds nuw %struct.obj_state_s, ptr %14, i32 0, i32 33
  %16 = load i16, ptr %15, align 8
  %17 = and i16 %16, 1
  %18 = zext i16 %17 to i32
  %19 = icmp ne i32 %18, 0
  br i1 %19, label %20, label %22

20:                                               ; preds = %13, %2
  %21 = load ptr, ptr %3, align 8, !tbaa !3
  call void @gvrender_end_anchor(ptr noundef %21)
  br label %22

22:                                               ; preds = %20, %13
  %23 = load ptr, ptr %5, align 8, !tbaa !87
  %24 = getelementptr inbounds nuw %struct.obj_state_s, ptr %23, i32 0, i32 20
  %25 = load ptr, ptr %24, align 8, !tbaa !92
  %26 = load ptr, ptr %4, align 8, !tbaa !103
  %27 = getelementptr inbounds nuw %struct.htmlmap_data_t, ptr %26, i32 0, i32 0
  %28 = load ptr, ptr %27, align 8, !tbaa !236
  %29 = icmp ne ptr %25, %28
  br i1 %29, label %30, label %39

30:                                               ; preds = %22
  %31 = load ptr, ptr %5, align 8, !tbaa !87
  %32 = getelementptr inbounds nuw %struct.obj_state_s, ptr %31, i32 0, i32 20
  %33 = load ptr, ptr %32, align 8, !tbaa !92
  call void @free(ptr noundef %33) #14
  %34 = load ptr, ptr %4, align 8, !tbaa !103
  %35 = getelementptr inbounds nuw %struct.htmlmap_data_t, ptr %34, i32 0, i32 0
  %36 = load ptr, ptr %35, align 8, !tbaa !236
  %37 = load ptr, ptr %5, align 8, !tbaa !87
  %38 = getelementptr inbounds nuw %struct.obj_state_s, ptr %37, i32 0, i32 20
  store ptr %36, ptr %38, align 8, !tbaa !92
  br label %39

39:                                               ; preds = %30, %22
  %40 = load ptr, ptr %5, align 8, !tbaa !87
  %41 = getelementptr inbounds nuw %struct.obj_state_s, ptr %40, i32 0, i32 25
  %42 = load ptr, ptr %41, align 8, !tbaa !93
  %43 = load ptr, ptr %4, align 8, !tbaa !103
  %44 = getelementptr inbounds nuw %struct.htmlmap_data_t, ptr %43, i32 0, i32 1
  %45 = load ptr, ptr %44, align 8, !tbaa !238
  %46 = icmp ne ptr %42, %45
  br i1 %46, label %47, label %56

47:                                               ; preds = %39
  %48 = load ptr, ptr %5, align 8, !tbaa !87
  %49 = getelementptr inbounds nuw %struct.obj_state_s, ptr %48, i32 0, i32 25
  %50 = load ptr, ptr %49, align 8, !tbaa !93
  call void @free(ptr noundef %50) #14
  %51 = load ptr, ptr %4, align 8, !tbaa !103
  %52 = getelementptr inbounds nuw %struct.htmlmap_data_t, ptr %51, i32 0, i32 1
  %53 = load ptr, ptr %52, align 8, !tbaa !238
  %54 = load ptr, ptr %5, align 8, !tbaa !87
  %55 = getelementptr inbounds nuw %struct.obj_state_s, ptr %54, i32 0, i32 25
  store ptr %53, ptr %55, align 8, !tbaa !93
  br label %56

56:                                               ; preds = %47, %39
  %57 = load ptr, ptr %5, align 8, !tbaa !87
  %58 = getelementptr inbounds nuw %struct.obj_state_s, ptr %57, i32 0, i32 29
  %59 = load ptr, ptr %58, align 8, !tbaa !94
  %60 = load ptr, ptr %4, align 8, !tbaa !103
  %61 = getelementptr inbounds nuw %struct.htmlmap_data_t, ptr %60, i32 0, i32 2
  %62 = load ptr, ptr %61, align 8, !tbaa !239
  %63 = icmp ne ptr %59, %62
  br i1 %63, label %64, label %73

64:                                               ; preds = %56
  %65 = load ptr, ptr %5, align 8, !tbaa !87
  %66 = getelementptr inbounds nuw %struct.obj_state_s, ptr %65, i32 0, i32 29
  %67 = load ptr, ptr %66, align 8, !tbaa !94
  call void @free(ptr noundef %67) #14
  %68 = load ptr, ptr %4, align 8, !tbaa !103
  %69 = getelementptr inbounds nuw %struct.htmlmap_data_t, ptr %68, i32 0, i32 2
  %70 = load ptr, ptr %69, align 8, !tbaa !239
  %71 = load ptr, ptr %5, align 8, !tbaa !87
  %72 = getelementptr inbounds nuw %struct.obj_state_s, ptr %71, i32 0, i32 29
  store ptr %70, ptr %72, align 8, !tbaa !94
  br label %73

73:                                               ; preds = %64, %56
  %74 = load ptr, ptr %5, align 8, !tbaa !87
  %75 = getelementptr inbounds nuw %struct.obj_state_s, ptr %74, i32 0, i32 21
  %76 = load ptr, ptr %75, align 8, !tbaa !54
  %77 = load ptr, ptr %4, align 8, !tbaa !103
  %78 = getelementptr inbounds nuw %struct.htmlmap_data_t, ptr %77, i32 0, i32 3
  %79 = load ptr, ptr %78, align 8, !tbaa !240
  %80 = icmp ne ptr %76, %79
  br i1 %80, label %81, label %90

81:                                               ; preds = %73
  %82 = load ptr, ptr %5, align 8, !tbaa !87
  %83 = getelementptr inbounds nuw %struct.obj_state_s, ptr %82, i32 0, i32 21
  %84 = load ptr, ptr %83, align 8, !tbaa !54
  call void @free(ptr noundef %84) #14
  %85 = load ptr, ptr %4, align 8, !tbaa !103
  %86 = getelementptr inbounds nuw %struct.htmlmap_data_t, ptr %85, i32 0, i32 3
  %87 = load ptr, ptr %86, align 8, !tbaa !240
  %88 = load ptr, ptr %5, align 8, !tbaa !87
  %89 = getelementptr inbounds nuw %struct.obj_state_s, ptr %88, i32 0, i32 21
  store ptr %87, ptr %89, align 8, !tbaa !54
  br label %90

90:                                               ; preds = %81, %73
  %91 = load ptr, ptr %4, align 8, !tbaa !103
  %92 = getelementptr inbounds nuw %struct.htmlmap_data_t, ptr %91, i32 0, i32 4
  %93 = load i8, ptr %92, align 8, !tbaa !241, !range !85, !noundef !86
  %94 = trunc i8 %93 to i1
  %95 = zext i1 %94 to i32
  %96 = load ptr, ptr %5, align 8, !tbaa !87
  %97 = getelementptr inbounds nuw %struct.obj_state_s, ptr %96, i32 0, i32 33
  %98 = trunc i32 %95 to i16
  %99 = load i16, ptr %97, align 8
  %100 = and i16 %98, 1
  %101 = and i16 %99, -2
  %102 = or i16 %101, %100
  store i16 %102, ptr %97, align 8
  call void @llvm.lifetime.end.p0(i64 8, ptr %5) #14
  ret void
}