; Function Attrs: nounwind uwtable
define internal fastcc void @endAnchor(ptr noundef %0, ptr noundef nonnull readonly captures(none) %1) unnamed_addr #0 {
  %3 = getelementptr inbounds nuw i8, ptr %0, i64 32
  %4 = load ptr, ptr %3, align 8, !tbaa !43
  %5 = getelementptr inbounds nuw i8, ptr %4, i64 248
  %6 = load ptr, ptr %5, align 8, !tbaa !22
  %.not = icmp eq ptr %6, null
  br i1 %.not, label %7, label %11

7:                                                ; preds = %2
  %8 = getelementptr inbounds nuw i8, ptr %4, i64 352
  %9 = load i16, ptr %8, align 8
  %10 = and i16 %9, 1
  %.not29 = icmp eq i16 %10, 0
  br i1 %.not29, label %12, label %11

11:                                               ; preds = %7, %2
  tail call void @gvrender_end_anchor(ptr noundef nonnull %0) #23
  %.pre = load ptr, ptr %5, align 8, !tbaa !22
  br label %12

12:                                               ; preds = %11, %7
  %13 = phi ptr [ %.pre, %11 ], [ null, %7 ]
  %14 = load ptr, ptr %1, align 8, !tbaa !282
  %.not30 = icmp eq ptr %13, %14
  br i1 %.not30, label %17, label %15

15:                                               ; preds = %12
  tail call void @free(ptr noundef %13) #23
  %16 = load ptr, ptr %1, align 8, !tbaa !282
  store ptr %16, ptr %5, align 8, !tbaa !22
  br label %17

17:                                               ; preds = %15, %12
  %18 = getelementptr inbounds nuw i8, ptr %4, i64 288
  %19 = load ptr, ptr %18, align 8, !tbaa !23
  %20 = getelementptr inbounds nuw i8, ptr %1, i64 8
  %21 = load ptr, ptr %20, align 8, !tbaa !284
  %.not31 = icmp eq ptr %19, %21
  br i1 %.not31, label %24, label %22

22:                                               ; preds = %17
  tail call void @free(ptr noundef %19) #23
  %23 = load ptr, ptr %20, align 8, !tbaa !284
  store ptr %23, ptr %18, align 8, !tbaa !23
  br label %24

24:                                               ; preds = %22, %17
  %25 = getelementptr inbounds nuw i8, ptr %4, i64 320
  %26 = load ptr, ptr %25, align 8, !tbaa !24
  %27 = getelementptr inbounds nuw i8, ptr %1, i64 16
  %28 = load ptr, ptr %27, align 8, !tbaa !285
  %.not32 = icmp eq ptr %26, %28
  br i1 %.not32, label %31, label %29

29:                                               ; preds = %24
  tail call void @free(ptr noundef %26) #23
  %30 = load ptr, ptr %27, align 8, !tbaa !285
  store ptr %30, ptr %25, align 8, !tbaa !24
  br label %31

31:                                               ; preds = %29, %24
  %32 = getelementptr inbounds nuw i8, ptr %4, i64 256
  %33 = load ptr, ptr %32, align 8, !tbaa !60
  %34 = getelementptr inbounds nuw i8, ptr %1, i64 24
  %35 = load ptr, ptr %34, align 8, !tbaa !286
  %.not33 = icmp eq ptr %33, %35
  br i1 %.not33, label %38, label %36

36:                                               ; preds = %31
  tail call void @free(ptr noundef %33) #23
  %37 = load ptr, ptr %34, align 8, !tbaa !286
  store ptr %37, ptr %32, align 8, !tbaa !60
  br label %38

38:                                               ; preds = %36, %31
  %39 = getelementptr inbounds nuw i8, ptr %1, i64 32
  %40 = load i8, ptr %39, align 8, !tbaa !287, !range !82, !noundef !227
  %41 = zext nneg i8 %40 to i16
  %42 = getelementptr inbounds nuw i8, ptr %4, i64 352
  %43 = load i16, ptr %42, align 8
  %44 = and i16 %43, -2
  %45 = or disjoint i16 %44, %41
  store i16 %45, ptr %42, align 8
  ret void
}